; Function Attrs: mustprogress nounwind uwtable
define internal fastcc void @_ZL9printFileRN4llvm11raw_ostreamENS_9StringRefES2_j(ptr noundef nonnull align 8 dereferenceable(48) %0, ptr %1, i64 %2, ptr %3, i64 %4, i32 noundef %5) unnamed_addr #0 {
  %7 = icmp eq i64 %2, 0
  br i1 %7, label %67, label %8

8:                                                ; preds = %6
  %9 = getelementptr inbounds nuw i8, ptr %0, i64 24
  %10 = load ptr, ptr %9, align 8
  %11 = getelementptr inbounds nuw i8, ptr %0, i64 32
  %12 = load ptr, ptr %11, align 8
  %13 = ptrtoint ptr %10 to i64
  %14 = ptrtoint ptr %12 to i64
  %15 = sub i64 %13, %14
  %16 = icmp ult i64 %15, 6
  br i1 %16, label %17, label %19

17:                                               ; preds = %8
  %18 = tail call noundef nonnull align 8 dereferenceable(48) ptr @_ZN4llvm11raw_ostream5writeEPKcm(ptr noundef nonnull align 8 dereferenceable(48) %0, ptr noundef nonnull @.str.12, i64 noundef 6) #3
  br label %_ZN4llvm11raw_ostreamlsEPKc.exit

19:                                               ; preds = %8
  tail call void @llvm.memcpy.p0.p0.i64(ptr noundef nonnull align 1 dereferenceable(6) %12, ptr noundef nonnull align 1 dereferenceable(6) @.str.12, i64 6, i1 false)
  %20 = load ptr, ptr %11, align 8
  %21 = getelementptr inbounds nuw i8, ptr %20, i64 6
  store ptr %21, ptr %11, align 8
  br label %_ZN4llvm11raw_ostreamlsEPKc.exit

_ZN4llvm11raw_ostreamlsEPKc.exit:                 ; preds = %17, %19
  %22 = icmp eq i64 %4, 0
  br i1 %22, label %_ZN4llvm11raw_ostreamlsEPKc.exit9, label %23

23:                                               ; preds = %_ZN4llvm11raw_ostreamlsEPKc.exit
  %24 = load ptr, ptr %9, align 8
  %25 = load ptr, ptr %11, align 8
  %26 = ptrtoint ptr %24 to i64
  %27 = ptrtoint ptr %25 to i64
  %28 = sub i64 %26, %27
  %29 = icmp ugt i64 %4, %28
  br i1 %29, label %30, label %32

30:                                               ; preds = %23
  %31 = tail call noundef nonnull align 8 dereferenceable(48) ptr @_ZN4llvm11raw_ostream5writeEPKcm(ptr noundef nonnull align 8 dereferenceable(48) %0, ptr noundef %3, i64 noundef %4) #3
  %.phi.trans.insert = getelementptr inbounds nuw i8, ptr %31, i64 32
  %.pre = load ptr, ptr %.phi.trans.insert, align 8
  br label %_ZN4llvm11raw_ostreamlsENS_9StringRefE.exit

32:                                               ; preds = %23
  tail call void @llvm.memcpy.p0.p0.i64(ptr align 1 %25, ptr align 1 %3, i64 %4, i1 false)
  %33 = load ptr, ptr %11, align 8
  %34 = getelementptr inbounds i8, ptr %33, i64 %4
  store ptr %34, ptr %11, align 8
  br label %_ZN4llvm11raw_ostreamlsENS_9StringRefE.exit

_ZN4llvm11raw_ostreamlsENS_9StringRefE.exit:      ; preds = %30, %32
  %35 = phi ptr [ %.pre, %30 ], [ %34, %32 ]
  %.0.i = phi ptr [ %31, %30 ], [ %0, %32 ]
  %36 = getelementptr inbounds nuw i8, ptr %.0.i, i64 24
  %37 = load ptr, ptr %36, align 8
  %38 = icmp eq ptr %37, %35
  br i1 %38, label %39, label %41

39:                                               ; preds = %_ZN4llvm11raw_ostreamlsENS_9StringRefE.exit
  %40 = tail call noundef nonnull align 8 dereferenceable(48) ptr @_ZN4llvm11raw_ostream5writeEPKcm(ptr noundef nonnull align 8 dereferenceable(48) %.0.i, ptr noundef nonnull @.str.13, i64 noundef 1) #3
  br label %_ZN4llvm11raw_ostreamlsEPKc.exit9

41:                                               ; preds = %_ZN4llvm11raw_ostreamlsENS_9StringRefE.exit
  %42 = getelementptr inbounds nuw i8, ptr %.0.i, i64 32
  store i8 47, ptr %35, align 1
  %43 = load ptr, ptr %42, align 8
  %44 = getelementptr inbounds nuw i8, ptr %43, i64 1
  store ptr %44, ptr %42, align 8
  br label %_ZN4llvm11raw_ostreamlsEPKc.exit9

_ZN4llvm11raw_ostreamlsEPKc.exit9:                ; preds = %41, %39, %_ZN4llvm11raw_ostreamlsEPKc.exit
  %45 = load ptr, ptr %9, align 8
  %46 = load ptr, ptr %11, align 8
  %47 = ptrtoint ptr %45 to i64
  %48 = ptrtoint ptr %46 to i64
  %49 = sub i64 %47, %48
  %50 = icmp ugt i64 %2, %49
  br i1 %50, label %51, label %53

51:                                               ; preds = %_ZN4llvm11raw_ostreamlsEPKc.exit9
  %52 = tail call noundef nonnull align 8 dereferenceable(48) ptr @_ZN4llvm11raw_ostream5writeEPKcm(ptr noundef nonnull align 8 dereferenceable(48) %0, ptr noundef %1, i64 noundef %2) #3
  br label %_ZN4llvm11raw_ostreamlsENS_9StringRefE.exit12

53:                                               ; preds = %_ZN4llvm11raw_ostreamlsEPKc.exit9
  tail call void @llvm.memcpy.p0.p0.i64(ptr align 1 %46, ptr align 1 %1, i64 %2, i1 false)
  %54 = load ptr, ptr %11, align 8
  %55 = getelementptr inbounds i8, ptr %54, i64 %2
  store ptr %55, ptr %11, align 8
  br label %_ZN4llvm11raw_ostreamlsENS_9StringRefE.exit12

_ZN4llvm11raw_ostreamlsENS_9StringRefE.exit12:    ; preds = %51, %53
  %.not = icmp eq i32 %5, 0
  br i1 %.not, label %67, label %56

56:                                               ; preds = %_ZN4llvm11raw_ostreamlsENS_9StringRefE.exit12
  %57 = load ptr, ptr %9, align 8
  %58 = load ptr, ptr %11, align 8
  %59 = icmp eq ptr %57, %58
  br i1 %59, label %60, label %62

60:                                               ; preds = %56
  %61 = tail call noundef nonnull align 8 dereferenceable(48) ptr @_ZN4llvm11raw_ostream5writeEPKcm(ptr noundef nonnull align 8 dereferenceable(48) %0, ptr noundef nonnull @.str.14, i64 noundef 1) #3
  br label %_ZN4llvm11raw_ostreamlsEPKc.exit15

62:                                               ; preds = %56
  store i8 58, ptr %58, align 1
  %63 = load ptr, ptr %11, align 8
  %64 = getelementptr inbounds nuw i8, ptr %63, i64 1
  store ptr %64, ptr %11, align 8
  br label %_ZN4llvm11raw_ostreamlsEPKc.exit15

_ZN4llvm11raw_ostreamlsEPKc.exit15:               ; preds = %60, %62
  %.0.i.i14 = phi ptr [ %61, %60 ], [ %0, %62 ]
  %65 = zext i32 %5 to i64
  %66 = tail call noundef nonnull align 8 dereferenceable(48) ptr @_ZN4llvm11raw_ostreamlsEm(ptr noundef nonnull align 8 dereferenceable(48) %.0.i.i14, i64 noundef %65) #3
  br label %67

67:                                               ; preds = %6, %_ZN4llvm11raw_ostreamlsEPKc.exit15, %_ZN4llvm11raw_ostreamlsENS_9StringRefE.exit12
  ret void
}